ARM GAS  C:\Users\andre\AppData\Local\Temp\ccxxJEgU.s 			page 1


   1              		.syntax unified
   2              		.cpu cortex-m3
   3              		.fpu softvfp
   4              		.eabi_attribute 20, 1
   5              		.eabi_attribute 21, 1
   6              		.eabi_attribute 23, 3
   7              		.eabi_attribute 24, 1
   8              		.eabi_attribute 25, 1
   9              		.eabi_attribute 26, 1
  10              		.eabi_attribute 30, 6
  11              		.eabi_attribute 34, 1
  12              		.eabi_attribute 18, 4
  13              		.thumb
  14              		.file	"uart_helper_fcns.c"
  15              		.text
  16              	.Ltext0:
  17              		.cfi_sections	.debug_frame
  18              		.section	.text.Interrupt_Handler_UART_Receive,"ax",%progbits
  19              		.align	2
  20              		.global	Interrupt_Handler_UART_Receive
  21              		.thumb
  22              		.thumb_func
  23              		.type	Interrupt_Handler_UART_Receive, %function
  24              	Interrupt_Handler_UART_Receive:
  25              	.LFB56:
  26              		.file 1 ".\\uart_helper_fcns.c"
   1:.\uart_helper_fcns.c **** /* ========================================
   2:.\uart_helper_fcns.c ****  *
   3:.\uart_helper_fcns.c ****  * Copyright Andrew P. Sabelhaus, 2018 
   4:.\uart_helper_fcns.c ****  * See README and LICENSE for more details.
   5:.\uart_helper_fcns.c ****  *
   6:.\uart_helper_fcns.c ****  * ========================================
   7:.\uart_helper_fcns.c **** */
   8:.\uart_helper_fcns.c **** 
   9:.\uart_helper_fcns.c **** // Code adapted heavily from Cypress' example CE95277 ADC and UART,
  10:.\uart_helper_fcns.c **** // but all re-written by Drew.
  11:.\uart_helper_fcns.c **** 
  12:.\uart_helper_fcns.c **** // We wrote the declarations in the header file,
  13:.\uart_helper_fcns.c **** // and define them here.
  14:.\uart_helper_fcns.c **** // Including this header file in both main.c and here will allow the functions
  15:.\uart_helper_fcns.c **** // to be accessible both places (one to define them, one to use them).
  16:.\uart_helper_fcns.c **** 
  17:.\uart_helper_fcns.c **** // Unlike in the header files, we don't need to add include guards here.
  18:.\uart_helper_fcns.c **** // That's because the guards are already present in the .h files themselves.
  19:.\uart_helper_fcns.c **** #include "uart_helper_fcns.h"
  20:.\uart_helper_fcns.c **** #include <project.h>
  21:.\uart_helper_fcns.c **** 
  22:.\uart_helper_fcns.c **** // Definition of the UART ISR
  23:.\uart_helper_fcns.c **** // We use the same line for the function definition, with the CY_ISR macro.
  24:.\uart_helper_fcns.c **** // Compare this to tutorial 6, with "pythagorean"
  25:.\uart_helper_fcns.c **** CY_ISR( Interrupt_Handler_UART_Receive){
  27              		.loc 1 25 0
  28              		.cfi_startproc
  29              		@ args = 0, pretend = 0, frame = 8
  30              		@ frame_needed = 1, uses_anonymous_args = 0
  31 0000 80B5     		push	{r7, lr}
  32              		.cfi_def_cfa_offset 8
ARM GAS  C:\Users\andre\AppData\Local\Temp\ccxxJEgU.s 			page 2


  33              		.cfi_offset 7, -8
  34              		.cfi_offset 14, -4
  35 0002 82B0     		sub	sp, sp, #8
  36              		.cfi_def_cfa_offset 16
  37 0004 00AF     		add	r7, sp, #0
  38              		.cfi_def_cfa_register 7
  26:.\uart_helper_fcns.c ****     // We assume this ISR is called when a byte is received.
  27:.\uart_helper_fcns.c ****     // See how the IDE doesn't give any errors, as long as we include project.h here.
  28:.\uart_helper_fcns.c ****     uint8 received_byte = UART_for_USB_GetChar();
  39              		.loc 1 28 0
  40 0006 FFF7FEFF 		bl	UART_for_USB_GetChar
  41 000a 0346     		mov	r3, r0
  42 000c FB71     		strb	r3, [r7, #7]
  29:.\uart_helper_fcns.c **** }
  43              		.loc 1 29 0
  44 000e 0837     		adds	r7, r7, #8
  45 0010 BD46     		mov	sp, r7
  46              		@ sp needed
  47 0012 80BD     		pop	{r7, pc}
  48              		.cfi_endproc
  49              	.LFE56:
  50              		.size	Interrupt_Handler_UART_Receive, .-Interrupt_Handler_UART_Receive
  51              		.text
  52              	.Letext0:
  53              		.file 2 "c:\\program files (x86)\\cypress\\psoc creator\\3.1\\psoc creator\\import\\gnu_cs\\arm\\4
  54              		.file 3 "c:\\program files (x86)\\cypress\\psoc creator\\3.1\\psoc creator\\import\\gnu_cs\\arm\\4
  55              		.file 4 ".\\Generated_Source\\PSoC5/cytypes.h"
  56              		.file 5 ".\\Generated_Source\\PSoC5/core_cm3.h"